; ModuleID = '1/1576.c'
source_filename = "1/1576.c"
target datalayout = "e-m:e-p270:32:32-p271:32:32-p272:64:64-i64:64-f80:128-n8:16:32:64-S128"
target triple = "x86_64-pc-linux-gnu"

@.str = private unnamed_addr constant [3 x i8] c"%d\00", align 1
@.str.1 = private unnamed_addr constant [4 x i8] c"%d\0A\00", align 1

; Function Attrs: noinline nounwind uwtable
define dso_local i32 @main() #0 {
  %1 = alloca i32, align 4
  %2 = alloca i32, align 4
  %3 = alloca i32, align 4
  %4 = alloca i32, align 4
  %5 = alloca i32, align 4
  store i32 0, i32* %1, align 4
  %6 = call i32 (i8*, ...) @__isoc99_scanf(i8* getelementptr inbounds ([3 x i8], [3 x i8]* @.str, i64 0, i64 0), i32* %2)
  store i32 1, i32* %3, align 4
  br label %7

7:                                                ; preds = %18, %0
  %8 = load i32, i32* %3, align 4
  %9 = load i32, i32* %2, align 4
  %10 = icmp sle i32 %8, %9
  br i1 %10, label %11, label %21

11:                                               ; preds = %7
  %12 = call i32 (i8*, ...) @__isoc99_scanf(i8* getelementptr inbounds ([3 x i8], [3 x i8]* @.str, i64 0, i64 0), i32* %4)
  %13 = load i32, i32* %4, align 4
  %14 = call i32 @col(i32 %13, i32 2)
  %15 = add nsw i32 %14, 1
  store i32 %15, i32* %5, align 4
  %16 = load i32, i32* %5, align 4
  %17 = call i32 (i8*, ...) @printf(i8* getelementptr inbounds ([4 x i8], [4 x i8]* @.str.1, i64 0, i64 0), i32 %16)
  br label %18

18:                                               ; preds = %11
  %19 = load i32, i32* %3, align 4
  %20 = add nsw i32 %19, 1
  store i32 %20, i32* %3, align 4
  br label %7

21:                                               ; preds = %7
  ret i32 0
}

declare dso_local i32 @__isoc99_scanf(i8*, ...) #1

; Function Attrs: noinline nounwind uwtable
define dso_local i32 @col(i32 %0, i32 %1) #0 {
  %3 = alloca i32, align 4
  %4 = alloca i32, align 4
  %5 = alloca i32, align 4
  %6 = alloca i32, align 4
  %7 = alloca i32, align 4
  %8 = alloca i32, align 4
  store i32 %0, i32* %3, align 4
  store i32 %1, i32* %4, align 4
  store i32 0, i32* %7, align 4
  store i32 0, i32* %8, align 4
  %9 = load i32, i32* %4, align 4
  store i32 %9, i32* %5, align 4
  br label %10

10:                                               ; preds = %39, %2
  %11 = load i32, i32* %5, align 4
  %12 = load i32, i32* %3, align 4
  %13 = sdiv i32 %12, 2
  %14 = icmp slt i32 %11, %13
  br i1 %14, label %15, label %21

15:                                               ; preds = %10
  %16 = load i32, i32* %3, align 4
  %17 = load i32, i32* %5, align 4
  %18 = sdiv i32 %16, %17
  %19 = load i32, i32* %5, align 4
  %20 = icmp sge i32 %18, %19
  br label %21

21:                                               ; preds = %15, %10
  %22 = phi i1 [ false, %10 ], [ %20, %15 ]
  br i1 %22, label %23, label %42

23:                                               ; preds = %21
  %24 = load i32, i32* %3, align 4
  %25 = load i32, i32* %5, align 4
  %26 = srem i32 %24, %25
  %27 = icmp eq i32 %26, 0
  br i1 %27, label %28, label %38

28:                                               ; preds = %23
  %29 = load i32, i32* %3, align 4
  %30 = load i32, i32* %5, align 4
  %31 = sdiv i32 %29, %30
  store i32 %31, i32* %6, align 4
  %32 = load i32, i32* %7, align 4
  %33 = add nsw i32 %32, 1
  %34 = load i32, i32* %6, align 4
  %35 = load i32, i32* %5, align 4
  %36 = call i32 @col(i32 %34, i32 %35)
  %37 = add nsw i32 %33, %36
  store i32 %37, i32* %7, align 4
  store i32 1, i32* %8, align 4
  br label %38

38:                                               ; preds = %28, %23
  br label %39

39:                                               ; preds = %38
  %40 = load i32, i32* %5, align 4
  %41 = add nsw i32 %40, 1
  store i32 %41, i32* %5, align 4
  br label %10

42:                                               ; preds = %21
  %43 = load i32, i32* %8, align 4
  %44 = icmp eq i32 %43, 0
  br i1 %44, label %45, label %46

45:                                               ; preds = %42
  store i32 0, i32* %7, align 4
  br label %46

46:                                               ; preds = %45, %42
  %47 = load i32, i32* %7, align 4
  ret i32 %47
}

declare dso_local i32 @printf(i8*, ...) #1


!llvm.module.flags = !{!0}
!llvm.ident = !{!1}

!0 = !{i32 1, !"wchar_size", i32 4}
!1 = !{!"clang version 10.0.0-4ubuntu1 "}
